; Function Attrs: mustprogress uwtable
define dso_local void @_ZNK5cmake15PrintPresetListERK19cmCMakePresetsGraph(ptr nocapture noundef nonnull readonly align 8 dereferenceable(2216) %0, ptr noundef nonnull align 8 dereferenceable(528) %1) local_unnamed_addr #3 align 2 personality ptr @__gxx_personality_v0 {
  %3 = alloca %"class.std::vector.228", align 8
  %4 = alloca %"class.std::function.1007", align 8
  call void @llvm.memset.p0.i64(ptr noundef nonnull align 8 dereferenceable(24) %3, i8 0, i64 24, i1 false)
  invoke void @_ZNK5cmake23GetRegisteredGeneratorsERSt6vectorINS_13GeneratorInfoESaIS1_EEb(ptr noundef nonnull align 8 dereferenceable(2216) %0, ptr noundef nonnull align 8 dereferenceable(24) %3, i1 noundef zeroext false)
          to label %5 unwind label %17

5:                                                ; preds = %2
  %6 = getelementptr inbounds i8, ptr %4, i64 16
  %7 = getelementptr inbounds i8, ptr %4, i64 24
  %8 = getelementptr inbounds i8, ptr %4, i64 8
  store i64 0, ptr %8, align 8
  %9 = ptrtoint ptr %3 to i64
  store i64 %9, ptr %4, align 8
  store ptr @"_ZNSt17_Function_handlerIFbRKN19cmCMakePresetsGraph15ConfigurePresetEEZNK5cmake15PrintPresetListERKS0_E3$_0E9_M_invokeERKSt9_Any_dataS3_", ptr %7, align 8
  store ptr @"_ZNSt17_Function_handlerIFbRKN19cmCMakePresetsGraph15ConfigurePresetEEZNK5cmake15PrintPresetListERKS0_E3$_0E10_M_managerERSt9_Any_dataRKSA_St18_Manager_operation", ptr %6, align 8
  invoke void @_ZNK19cmCMakePresetsGraph24PrintConfigurePresetListERKSt8functionIFbRKNS_15ConfigurePresetEEEPNS_21PrintPrecedingNewlineE(ptr noundef nonnull align 8 dereferenceable(528) %1, ptr noundef nonnull align 8 dereferenceable(32) %4, ptr noundef null)
          to label %10 unwind label %19

10:                                               ; preds = %5
  %11 = load ptr, ptr %6, align 8
  %.not.i.i = icmp eq ptr %11, null
  br i1 %.not.i.i, label %_ZNSt8functionIFbRKN19cmCMakePresetsGraph15ConfigurePresetEEED2Ev.exit, label %12

12:                                               ; preds = %10
  %13 = invoke noundef zeroext i1 %11(ptr noundef nonnull align 8 dereferenceable(16) %4, ptr noundef nonnull align 8 dereferenceable(16) %4, i32 noundef 3)
          to label %_ZNSt8functionIFbRKN19cmCMakePresetsGraph15ConfigurePresetEEED2Ev.exit unwind label %14

14:                                               ; preds = %12
  %15 = landingpad { ptr, i32 }
          catch ptr null
  %16 = extractvalue { ptr, i32 } %15, 0
  call void @__clang_call_terminate(ptr %16) #33
  unreachable

_ZNSt8functionIFbRKN19cmCMakePresetsGraph15ConfigurePresetEEED2Ev.exit: ; preds = %10, %12
  call void @_ZNSt6vectorIN5cmake13GeneratorInfoESaIS1_EED2Ev(ptr noundef nonnull align 8 dereferenceable(24) %3) #30
  ret void

17:                                               ; preds = %2
  %18 = landingpad { ptr, i32 }
          cleanup
  br label %_ZNSt8functionIFbRKN19cmCMakePresetsGraph15ConfigurePresetEEED2Ev.exit6

19:                                               ; preds = %5
  %20 = landingpad { ptr, i32 }
          cleanup
  %21 = load ptr, ptr %6, align 8
  %.not.i.i5 = icmp eq ptr %21, null
  br i1 %.not.i.i5, label %_ZNSt8functionIFbRKN19cmCMakePresetsGraph15ConfigurePresetEEED2Ev.exit6, label %22

22:                                               ; preds = %19
  %23 = invoke noundef zeroext i1 %21(ptr noundef nonnull align 8 dereferenceable(16) %4, ptr noundef nonnull align 8 dereferenceable(16) %4, i32 noundef 3)
          to label %_ZNSt8functionIFbRKN19cmCMakePresetsGraph15ConfigurePresetEEED2Ev.exit6 unwind label %24

24:                                               ; preds = %22
  %25 = landingpad { ptr, i32 }
          catch ptr null
  %26 = extractvalue { ptr, i32 } %25, 0
  call void @__clang_call_terminate(ptr %26) #33
  unreachable

_ZNSt8functionIFbRKN19cmCMakePresetsGraph15ConfigurePresetEEED2Ev.exit6: ; preds = %22, %19, %17
  %.pn = phi { ptr, i32 } [ %18, %17 ], [ %20, %19 ], [ %20, %22 ]
  call void @_ZNSt6vectorIN5cmake13GeneratorInfoESaIS1_EED2Ev(ptr noundef nonnull align 8 dereferenceable(24) %3) #30
  resume { ptr, i32 } %.pn
}